target datalayout = "e-m:e-p270:32:32-p271:32:32-p272:64:64-i64:64-i128:128-f80:128-n8:16:32:64-S128"
target triple = "x86_64-pc-linux-gnu"

@text_mime_types = internal global [5 x ptr] [ptr @.str.1, ptr @.str.2, ptr @.str.3, ptr @.str.4, ptr @.str.5], align 16
@.str = private unnamed_addr constant [1 x i8] zeroinitializer, align 1

; Function Attrs: nounwind uwtable
define hidden ptr @X11_GetPrimarySelectionText(ptr noundef %0) #0 {
  %2 = alloca ptr, align 8
  %3 = alloca i64, align 8
  %4 = alloca ptr, align 8
  store ptr %0, ptr %2, align 8
  call void @llvm.lifetime.start.p0(i64 8, ptr %3) #6
  call void @llvm.lifetime.start.p0(i64 8, ptr %4) #6
  %5 = load ptr, ptr %2, align 8
  %6 = load ptr, ptr @text_mime_types, align 16
  %7 = call ptr @GetSelectionData(ptr noundef %5, i64 noundef 1, ptr noundef %6, ptr noundef %3)
  store ptr %7, ptr %4, align 8
  %8 = load ptr, ptr %4, align 8
  %9 = icmp ne ptr %8, null
  br i1 %9, label %12, label %10

10:                                               ; preds = %1
  %11 = call noalias ptr @SDL_strdup_REAL(ptr noundef @.str)
  store ptr %11, ptr %4, align 8
  br label %12

12:                                               ; preds = %10, %1
  %13 = load ptr, ptr %4, align 8
  call void @llvm.lifetime.end.p0(i64 8, ptr %4) #6
  call void @llvm.lifetime.end.p0(i64 8, ptr %3) #6
  ret ptr %13
}