; Function Attrs: nounwind uwtable
define hidden ptr @X11_GetPrimarySelectionText(ptr noundef readonly captures(none) %0) local_unnamed_addr #0 {
  %2 = alloca i64, align 8
  call void @llvm.lifetime.start.p0(i64 8, ptr nonnull %2) #6
  %3 = load ptr, ptr @text_mime_types, align 16
  %4 = call fastcc ptr @GetSelectionData(ptr noundef %0, i64 noundef 1, ptr noundef %3, ptr noundef nonnull %2)
  %.not = icmp eq ptr %4, null
  br i1 %.not, label %5, label %7

5:                                                ; preds = %1
  %6 = call noalias ptr @SDL_strdup_REAL(ptr noundef nonnull @.str) #6
  br label %7

7:                                                ; preds = %5, %1
  %.0 = phi ptr [ %4, %1 ], [ %6, %5 ]
  call void @llvm.lifetime.end.p0(i64 8, ptr nonnull %2) #6
  ret ptr %.0
}